target datalayout = "e-m:e-p270:32:32-p271:32:32-p272:64:64-i64:64-i128:128-f80:128-n8:16:32:64-S128"
target triple = "x86_64-pc-linux-gnu"

%struct.Abc_Frame_t_ = type { ptr, ptr, ptr, ptr, ptr, ptr, ptr, ptr, ptr, ptr, i32, i32, i32, i32, i32, ptr, float, float, i32, i32, ptr, ptr, ptr, double, double, ptr, ptr, ptr, ptr, ptr, ptr, ptr, ptr, ptr, ptr, ptr, ptr, float, ptr, i32, ptr, ptr, ptr, ptr, ptr, i32, i32, i32, i32, i32, i32, ptr, ptr, ptr, ptr, ptr, ptr, i32, i32, ptr, ptr, ptr, ptr, ptr, ptr, ptr, ptr, ptr, ptr, ptr, ptr, ptr, ptr, ptr, ptr, ptr, ptr, ptr, ptr, ptr, ptr, ptr, ptr, ptr, ptr, ptr, ptr, ptr, ptr }
%struct.Vec_Int_t_ = type { i32, i32, ptr }

@s_GlobalFrame = internal global ptr null, align 8

; Function Attrs: inlinehint nounwind uwtable
define internal void @Vec_IntFreeP(ptr noundef %0) #1 {
  %2 = alloca ptr, align 8
  store ptr %0, ptr %2, align 8, !tbaa !68
  %3 = load ptr, ptr %2, align 8, !tbaa !68
  %4 = load ptr, ptr %3, align 8, !tbaa !66
  %5 = icmp eq ptr %4, null
  br i1 %5, label %6, label %7

6:                                                ; preds = %1
  br label %32

7:                                                ; preds = %1
  %8 = load ptr, ptr %2, align 8, !tbaa !68
  %9 = load ptr, ptr %8, align 8, !tbaa !66
  %10 = getelementptr inbounds nuw %struct.Vec_Int_t_, ptr %9, i32 0, i32 2
  %11 = load ptr, ptr %10, align 8, !tbaa !70
  %12 = icmp ne ptr %11, null
  br i1 %12, label %13, label %21

13:                                               ; preds = %7
  %14 = load ptr, ptr %2, align 8, !tbaa !68
  %15 = load ptr, ptr %14, align 8, !tbaa !66
  %16 = getelementptr inbounds nuw %struct.Vec_Int_t_, ptr %15, i32 0, i32 2
  %17 = load ptr, ptr %16, align 8, !tbaa !70
  call void @free(ptr noundef %17) #10
  %18 = load ptr, ptr %2, align 8, !tbaa !68
  %19 = load ptr, ptr %18, align 8, !tbaa !66
  %20 = getelementptr inbounds nuw %struct.Vec_Int_t_, ptr %19, i32 0, i32 2
  store ptr null, ptr %20, align 8, !tbaa !70
  br label %22

21:                                               ; preds = %7
  br label %22

22:                                               ; preds = %21, %13
  %23 = load ptr, ptr %2, align 8, !tbaa !68
  %24 = load ptr, ptr %23, align 8, !tbaa !66
  %25 = icmp ne ptr %24, null
  br i1 %25, label %26, label %30

26:                                               ; preds = %22
  %27 = load ptr, ptr %2, align 8, !tbaa !68
  %28 = load ptr, ptr %27, align 8, !tbaa !66
  call void @free(ptr noundef %28) #10
  %29 = load ptr, ptr %2, align 8, !tbaa !68
  store ptr null, ptr %29, align 8, !tbaa !66
  br label %31

30:                                               ; preds = %22
  br label %31

31:                                               ; preds = %30, %26
  br label %32

32:                                               ; preds = %31, %6
  ret void
}

; Function Attrs: nounwind uwtable
define void @Abc_FrameSetInv(ptr noundef %0) #0 {
  %2 = alloca ptr, align 8
  store ptr %0, ptr %2, align 8, !tbaa !66
  %3 = load ptr, ptr @s_GlobalFrame, align 8, !tbaa !3
  %4 = getelementptr inbounds nuw %struct.Abc_Frame_t_, ptr %3, i32 0, i32 72
  call void @Vec_IntFreeP(ptr noundef %4)
  %5 = load ptr, ptr %2, align 8, !tbaa !66
  %6 = load ptr, ptr @s_GlobalFrame, align 8, !tbaa !3
  %7 = getelementptr inbounds nuw %struct.Abc_Frame_t_, ptr %6, i32 0, i32 72
  store ptr %5, ptr %7, align 8, !tbaa !67
  ret void
}