; Function Attrs: mustprogress nounwind willreturn uwtable
define void @Abc_FrameSetInv(ptr noundef %0) local_unnamed_addr #3 {
  %2 = load ptr, ptr @s_GlobalFrame, align 8, !tbaa !3
  %3 = getelementptr inbounds nuw i8, ptr %2, i64 512
  %4 = load ptr, ptr %3, align 8, !tbaa !58
  %5 = icmp eq ptr %4, null
  br i1 %5, label %Vec_IntFreeP.exit, label %6

6:                                                ; preds = %1
  %7 = getelementptr inbounds nuw i8, ptr %4, i64 8
  %8 = load ptr, ptr %7, align 8, !tbaa !59
  %.not.i = icmp eq ptr %8, null
  br i1 %.not.i, label %11, label %.thread.i

.thread.i:                                        ; preds = %6
  tail call void @free(ptr noundef nonnull %8) #20
  %9 = load ptr, ptr %3, align 8, !tbaa !58
  %10 = getelementptr inbounds nuw i8, ptr %9, i64 8
  store ptr null, ptr %10, align 8, !tbaa !59
  br label %11

11:                                               ; preds = %.thread.i, %6
  %12 = phi ptr [ %9, %.thread.i ], [ %4, %6 ]
  tail call void @free(ptr noundef nonnull %12) #20
  br label %Vec_IntFreeP.exit

Vec_IntFreeP.exit:                                ; preds = %1, %11
  store ptr %0, ptr %3, align 8, !tbaa !61
  ret void
}